target datalayout = "e-m:e-p270:32:32-p271:32:32-p272:64:64-i64:64-i128:128-f80:128-n8:16:32:64-S128"
target triple = "x86_64-pc-linux-gnu"

; Function Attrs: nounwind uwtable
define internal signext i8 @hex2int(ptr noundef %0) #0 {
  %2 = alloca ptr, align 8
  store ptr %0, ptr %2, align 8
  %3 = load ptr, ptr %2, align 8
  %4 = getelementptr inbounds i8, ptr %3, i64 0
  %5 = load i8, ptr %4, align 1
  %6 = zext i8 %5 to i32
  %7 = icmp eq i32 %6, 48
  br i1 %7, label %8, label %15

8:                                                ; preds = %1
  %9 = load ptr, ptr %2, align 8
  %10 = getelementptr inbounds i8, ptr %9, i64 1
  %11 = load i8, ptr %10, align 1
  %12 = zext i8 %11 to i32
  %13 = icmp eq i32 %12, 48
  br i1 %13, label %14, label %15

14:                                               ; preds = %8
  br label %32

15:                                               ; preds = %8, %1
  %16 = load ptr, ptr %2, align 8
  %17 = getelementptr inbounds i8, ptr %16, i64 0
  %18 = load i8, ptr %17, align 1
  %19 = zext i8 %18 to i64
  %20 = getelementptr inbounds [256 x i16], ptr @hextable, i64 0, i64 %19
  %21 = load i16, ptr %20, align 2
  %22 = sext i16 %21 to i32
  %23 = shl i32 %22, 4
  %24 = load ptr, ptr %2, align 8
  %25 = getelementptr inbounds i8, ptr %24, i64 1
  %26 = load i8, ptr %25, align 1
  %27 = zext i8 %26 to i64
  %28 = getelementptr inbounds [256 x i16], ptr @hextable, i64 0, i64 %27
  %29 = load i16, ptr %28, align 2
  %30 = sext i16 %29 to i32
  %31 = or i32 %23, %30
  br label %32

32:                                               ; preds = %15, %14
  %33 = phi i32 [ 1, %14 ], [ %31, %15 ]
  %34 = trunc i32 %33 to i8
  ret i8 %34
}

; Function Attrs: nounwind uwtable
define internal void @str_hex_to_char(ptr noundef %0, ptr noundef %1) #0 {
  %3 = alloca ptr, align 8
  %4 = alloca ptr, align 8
  %5 = alloca ptr, align 8
  %6 = alloca ptr, align 8
  %7 = alloca ptr, align 8
  %8 = alloca ptr, align 8
  %9 = alloca ptr, align 8
  store ptr %0, ptr %3, align 8
  store ptr %1, ptr %4, align 8
  %10 = load ptr, ptr %3, align 8
  %11 = load ptr, ptr %10, align 8
  store ptr %11, ptr %7, align 8
  %12 = load ptr, ptr %4, align 8
  %13 = load ptr, ptr %12, align 8
  store ptr %13, ptr %8, align 8
  %14 = load ptr, ptr %8, align 8
  %15 = load ptr, ptr %7, align 8
  %16 = getelementptr inbounds i8, ptr %15, i64 1
  %17 = icmp ule ptr %14, %16
  br i1 %17, label %18, label %19

18:                                               ; preds = %2
  br label %121

19:                                               ; preds = %2
  %20 = load ptr, ptr %7, align 8
  %21 = getelementptr inbounds i8, ptr %20, i64 0
  %22 = load i8, ptr %21, align 1
  %23 = sext i8 %22 to i32
  %24 = icmp eq i32 %23, 37
  br i1 %24, label %25, label %33

25:                                               ; preds = %19
  %26 = load ptr, ptr %7, align 8
  %27 = getelementptr inbounds i8, ptr %26, i64 1
  %28 = call signext i8 @hex2int(ptr noundef %27)
  %29 = load ptr, ptr %7, align 8
  %30 = getelementptr inbounds i8, ptr %29, i64 2
  store i8 %28, ptr %30, align 1
  %31 = load ptr, ptr %7, align 8
  %32 = getelementptr inbounds i8, ptr %31, i64 2
  store ptr %32, ptr %7, align 8
  br label %33

33:                                               ; preds = %25, %19
  %34 = load ptr, ptr %7, align 8
  %35 = getelementptr inbounds i8, ptr %34, i32 1
  store ptr %35, ptr %7, align 8
  %36 = load ptr, ptr %3, align 8
  store ptr %34, ptr %36, align 8
  br label %37

37:                                               ; preds = %115, %33
  %38 = load ptr, ptr %7, align 8
  store ptr %38, ptr %6, align 8
  store ptr null, ptr %5, align 8
  br label %39

39:                                               ; preds = %110, %37
  %40 = load ptr, ptr %7, align 8
  %41 = getelementptr inbounds i8, ptr %40, i64 3
  %42 = load ptr, ptr %8, align 8
  %43 = icmp ule ptr %41, %42
  br i1 %43, label %44, label %113

44:                                               ; preds = %39
  %45 = load ptr, ptr %7, align 8
  %46 = getelementptr inbounds i8, ptr %45, i64 3
  %47 = load ptr, ptr %8, align 8
  %48 = icmp ule ptr %46, %47
  br i1 %48, label %49, label %110

49:                                               ; preds = %44
  %50 = load ptr, ptr %7, align 8
  %51 = getelementptr inbounds i8, ptr %50, i64 0
  %52 = load i8, ptr %51, align 1
  %53 = sext i8 %52 to i32
  %54 = icmp eq i32 %53, 37
  br i1 %54, label %55, label %110

55:                                               ; preds = %49
  %56 = load ptr, ptr %7, align 8
  %57 = getelementptr inbounds i8, ptr %56, i64 3
  store ptr %57, ptr %9, align 8
  %58 = call ptr @__ctype_b_loc() #11
  %59 = load ptr, ptr %58, align 8
  %60 = load ptr, ptr %7, align 8
  %61 = getelementptr inbounds i8, ptr %60, i64 1
  %62 = load i8, ptr %61, align 1
  %63 = sext i8 %62 to i32
  %64 = sext i32 %63 to i64
  %65 = getelementptr inbounds i16, ptr %59, i64 %64
  %66 = load i16, ptr %65, align 2
  %67 = zext i16 %66 to i32
  %68 = and i32 %67, 4096
  %69 = icmp ne i32 %68, 0
  br i1 %69, label %70, label %109

70:                                               ; preds = %55
  %71 = call ptr @__ctype_b_loc() #11
  %72 = load ptr, ptr %71, align 8
  %73 = load ptr, ptr %7, align 8
  %74 = getelementptr inbounds i8, ptr %73, i64 2
  %75 = load i8, ptr %74, align 1
  %76 = sext i8 %75 to i32
  %77 = sext i32 %76 to i64
  %78 = getelementptr inbounds i16, ptr %72, i64 %77
  %79 = load i16, ptr %78, align 2
  %80 = zext i16 %79 to i32
  %81 = and i32 %80, 4096
  %82 = icmp ne i32 %81, 0
  br i1 %82, label %83, label %109

83:                                               ; preds = %70
  %84 = load ptr, ptr %7, align 8
  %85 = getelementptr inbounds i8, ptr %84, i64 1
  %86 = call signext i8 @hex2int(ptr noundef %85)
  %87 = load ptr, ptr %7, align 8
  store i8 %86, ptr %87, align 1
  %88 = load ptr, ptr %7, align 8
  %89 = load i8, ptr %88, align 1
  %90 = sext i8 %89 to i32
  %91 = icmp eq i32 %90, 37
  br i1 %91, label %92, label %97

92:                                               ; preds = %83
  %93 = load ptr, ptr %5, align 8
  %94 = icmp ne ptr %93, null
  br i1 %94, label %97, label %95

95:                                               ; preds = %92
  %96 = load ptr, ptr %7, align 8
  store ptr %96, ptr %5, align 8
  br label %97

97:                                               ; preds = %95, %92, %83
  %98 = load ptr, ptr %7, align 8
  %99 = getelementptr inbounds i8, ptr %98, i64 1
  %100 = load ptr, ptr %9, align 8
  %101 = load ptr, ptr %8, align 8
  %102 = load ptr, ptr %9, align 8
  %103 = ptrtoint ptr %101 to i64
  %104 = ptrtoint ptr %102 to i64
  %105 = sub i64 %103, %104
  %106 = add nsw i64 %105, 1
  call void @llvm.memmove.p0.p0.i64(ptr align 1 %99, ptr align 1 %100, i64 %106, i1 false)
  %107 = load ptr, ptr %8, align 8
  %108 = getelementptr inbounds i8, ptr %107, i64 -2
  store ptr %108, ptr %8, align 8
  br label %109

109:                                              ; preds = %97, %70, %55
  br label %110

110:                                              ; preds = %109, %49, %44
  %111 = load ptr, ptr %7, align 8
  %112 = getelementptr inbounds i8, ptr %111, i32 1
  store ptr %112, ptr %7, align 8
  br label %39

113:                                              ; preds = %39
  %114 = load ptr, ptr %6, align 8
  store ptr %114, ptr %7, align 8
  br label %115

115:                                              ; preds = %113
  %116 = load ptr, ptr %5, align 8
  %117 = icmp ne ptr %116, null
  br i1 %117, label %37, label %118

118:                                              ; preds = %115
  %119 = load ptr, ptr %8, align 8
  %120 = load ptr, ptr %4, align 8
  store ptr %119, ptr %120, align 8
  br label %121

121:                                              ; preds = %118, %18
  ret void
}