; Function Attrs: nofree nosync nounwind memory(readwrite, inaccessiblemem: none) uwtable
define internal fastcc void @str_hex_to_char(ptr nocapture noundef %0, ptr nocapture noundef %1) unnamed_addr #5 {
  %3 = load ptr, ptr %0, align 8
  %4 = load ptr, ptr %1, align 8
  %5 = getelementptr inbounds i8, ptr %3, i64 1
  %.not = icmp ugt ptr %4, %5
  br i1 %.not, label %6, label %70

6:                                                ; preds = %2
  %7 = load i8, ptr %3, align 1
  %8 = icmp eq i8 %7, 37
  br i1 %8, label %9, label %26

9:                                                ; preds = %6
  %10 = load i8, ptr %5, align 1
  %11 = icmp eq i8 %10, 48
  %12 = getelementptr inbounds i8, ptr %3, i64 2
  %13 = load i8, ptr %12, align 1
  %14 = icmp eq i8 %13, 48
  %or.cond.i = select i1 %11, i1 %14, i1 false
  br i1 %or.cond.i, label %hex2int.exit, label %._crit_edge.i

._crit_edge.i:                                    ; preds = %9
  %15 = zext i8 %10 to i64
  %16 = getelementptr inbounds [256 x i16], ptr @hextable, i64 0, i64 %15
  %17 = load i16, ptr %16, align 2
  %18 = trunc i16 %17 to i8
  %19 = shl i8 %18, 4
  %20 = zext i8 %13 to i64
  %21 = getelementptr inbounds [256 x i16], ptr @hextable, i64 0, i64 %20
  %22 = load i16, ptr %21, align 2
  %23 = trunc i16 %22 to i8
  %24 = or i8 %19, %23
  br label %hex2int.exit

hex2int.exit:                                     ; preds = %9, %._crit_edge.i
  %25 = phi i8 [ %24, %._crit_edge.i ], [ 1, %9 ]
  store i8 %25, ptr %12, align 1
  br label %26

26:                                               ; preds = %hex2int.exit, %6
  %.038 = phi ptr [ %12, %hex2int.exit ], [ %3, %6 ]
  store ptr %.038, ptr %0, align 8
  %27 = getelementptr inbounds i8, ptr %.038, i64 4
  br label %28

28:                                               ; preds = %._crit_edge, %26
  %.035 = phi ptr [ %4, %26 ], [ %.237, %._crit_edge ]
  %.not4452 = icmp ugt ptr %27, %.035
  br i1 %.not4452, label %._crit_edge.thread, label %.lr.ph

.lr.ph:                                           ; preds = %28, %68
  %29 = phi ptr [ %69, %68 ], [ %27, %28 ]
  %.055 = phi ptr [ %.2, %68 ], [ null, %28 ]
  %.13654 = phi ptr [ %.237, %68 ], [ %.035, %28 ]
  %.038.pn53 = phi ptr [ %.24056, %68 ], [ %.038, %28 ]
  %.24056 = getelementptr inbounds i8, ptr %.038.pn53, i64 1
  %30 = load i8, ptr %.24056, align 1
  %31 = icmp eq i8 %30, 37
  br i1 %31, label %32, label %68

32:                                               ; preds = %.lr.ph
  %33 = tail call ptr @__ctype_b_loc() #21
  %34 = load ptr, ptr %33, align 8
  %35 = getelementptr inbounds i8, ptr %.038.pn53, i64 2
  %36 = load i8, ptr %35, align 1
  %37 = sext i8 %36 to i64
  %38 = getelementptr inbounds i16, ptr %34, i64 %37
  %39 = load i16, ptr %38, align 2
  %40 = and i16 %39, 4096
  %.not46 = icmp eq i16 %40, 0
  br i1 %.not46, label %68, label %41

41:                                               ; preds = %32
  %42 = getelementptr inbounds i8, ptr %.038.pn53, i64 3
  %43 = load i8, ptr %42, align 1
  %44 = sext i8 %43 to i64
  %45 = getelementptr inbounds i16, ptr %34, i64 %44
  %46 = load i16, ptr %45, align 2
  %47 = and i16 %46, 4096
  %.not47 = icmp eq i16 %47, 0
  br i1 %.not47, label %68, label %48

48:                                               ; preds = %41
  %49 = icmp eq i8 %36, 48
  %50 = icmp eq i8 %43, 48
  %or.cond.i48 = and i1 %49, %50
  br i1 %or.cond.i48, label %hex2int.exit50, label %._crit_edge.i49

._crit_edge.i49:                                  ; preds = %48
  %51 = zext i8 %36 to i64
  %52 = getelementptr inbounds [256 x i16], ptr @hextable, i64 0, i64 %51
  %53 = load i16, ptr %52, align 2
  %54 = trunc i16 %53 to i8
  %55 = shl i8 %54, 4
  %56 = zext i8 %43 to i64
  %57 = getelementptr inbounds [256 x i16], ptr @hextable, i64 0, i64 %56
  %58 = load i16, ptr %57, align 2
  %59 = trunc i16 %58 to i8
  %60 = or i8 %55, %59
  br label %hex2int.exit50

hex2int.exit50:                                   ; preds = %48, %._crit_edge.i49
  %61 = phi i8 [ %60, %._crit_edge.i49 ], [ 1, %48 ]
  store i8 %61, ptr %.24056, align 1
  %62 = icmp ne i8 %61, 37
  %63 = icmp ne ptr %.055, null
  %or.cond = select i1 %62, i1 true, i1 %63
  %spec.select = select i1 %or.cond, ptr %.055, ptr %.24056
  %64 = ptrtoint ptr %.13654 to i64
  %65 = ptrtoint ptr %29 to i64
  %reass.sub = sub i64 %64, %65
  %66 = add i64 %reass.sub, 1
  tail call void @llvm.memmove.p0.p0.i64(ptr nonnull align 1 %35, ptr nonnull align 1 %29, i64 %66, i1 false)
  %67 = getelementptr inbounds i8, ptr %.13654, i64 -2
  br label %68

68:                                               ; preds = %32, %41, %hex2int.exit50, %.lr.ph
  %.237 = phi ptr [ %67, %hex2int.exit50 ], [ %.13654, %41 ], [ %.13654, %32 ], [ %.13654, %.lr.ph ]
  %.2 = phi ptr [ %spec.select, %hex2int.exit50 ], [ %.055, %41 ], [ %.055, %32 ], [ %.055, %.lr.ph ]
  %69 = getelementptr inbounds i8, ptr %.038.pn53, i64 5
  %.not44 = icmp ugt ptr %69, %.237
  br i1 %.not44, label %._crit_edge, label %.lr.ph

._crit_edge:                                      ; preds = %68
  %.not45 = icmp eq ptr %.2, null
  br i1 %.not45, label %._crit_edge.thread, label %28

._crit_edge.thread:                               ; preds = %28, %._crit_edge
  %.136.lcssa61 = phi ptr [ %.237, %._crit_edge ], [ %.035, %28 ]
  store ptr %.136.lcssa61, ptr %1, align 8
  br label %70

70:                                               ; preds = %2, %._crit_edge.thread
  ret void
}